; Function Attrs: mustprogress uwtable
define void @_ZN5faiss8IndexIVF12add_with_idsElPKfPKl(ptr noundef nonnull align 8 dereferenceable(265) %0, i64 noundef %1, ptr noundef %2, ptr noundef %3) unnamed_addr #0 align 2 personality ptr @__gxx_personality_v0 {
  %5 = icmp ugt i64 %1, 2305843009213693951
  %6 = shl nuw i64 %1, 3
  %7 = select i1 %5, i64 -1, i64 %6
  %8 = tail call noalias noundef nonnull ptr @_Znam(i64 noundef %7) #43
  %9 = getelementptr inbounds nuw i8, ptr %0, i64 48
  %10 = load ptr, ptr %9, align 8, !tbaa !57
  %11 = load ptr, ptr %10, align 8, !tbaa !14
  %12 = getelementptr inbounds nuw i8, ptr %11, i64 56
  %13 = load ptr, ptr %12, align 8
  invoke void %13(ptr noundef nonnull align 8 dereferenceable(36) %10, i64 noundef %1, ptr noundef %2, ptr noundef nonnull %8, i64 noundef 1)
          to label %14 unwind label %_ZNSt10unique_ptrIA_lSt14default_deleteIS0_EED2Ev.exit10

14:                                               ; preds = %4
  %15 = load ptr, ptr %0, align 8, !tbaa !14
  %16 = getelementptr inbounds nuw i8, ptr %15, i64 184
  %17 = load ptr, ptr %16, align 8
  invoke void %17(ptr noundef nonnull align 8 dereferenceable(265) %0, i64 noundef %1, ptr noundef %2, ptr noundef %3, ptr noundef nonnull %8, ptr noundef null)
          to label %_ZNSt10unique_ptrIA_lSt14default_deleteIS0_EED2Ev.exit unwind label %_ZNSt10unique_ptrIA_lSt14default_deleteIS0_EED2Ev.exit10

_ZNSt10unique_ptrIA_lSt14default_deleteIS0_EED2Ev.exit: ; preds = %14
  tail call void @_ZdaPv(ptr noundef nonnull %8) #44
  ret void

_ZNSt10unique_ptrIA_lSt14default_deleteIS0_EED2Ev.exit10: ; preds = %14, %4
  %18 = landingpad { ptr, i32 }
          cleanup
  tail call void @_ZdaPv(ptr noundef nonnull %8) #44
  resume { ptr, i32 } %18
}